target datalayout = "e-m:e-p270:32:32-p271:32:32-p272:64:64-i64:64-i128:128-f80:128-n8:16:32:64-S128"
target triple = "x86_64-unknown-linux-gnu"

; Function Attrs: mustprogress uwtable
define dso_local noundef zeroext i1 @_ZN3net26QuicCryptoServerStreamBase31DoesPeerSupportStatelessRejectsERKNS_22CryptoHandshakeMessageE(ptr noundef nonnull align 8 dereferenceable(72) %message) #0 align 2 {
entry:
  %retval = alloca i1, align 1
  %message.addr = alloca ptr, align 8
  %received_tags = alloca ptr, align 8
  %received_tags_length = alloca i64, align 8
  %error = alloca i32, align 4
  %i = alloca i64, align 8
  store ptr %message, ptr %message.addr, align 8
  %0 = load ptr, ptr %message.addr, align 8
  %call = call noundef i32 @_ZNK3net22CryptoHandshakeMessage10GetTaglistEjPPKjPm(ptr noundef nonnull align 8 dereferenceable(72) %0, i32 noundef 1414549315, ptr noundef %received_tags, ptr noundef %received_tags_length)
  store i32 %call, ptr %error, align 4
  %1 = load i32, ptr %error, align 4
  %cmp = icmp ne i32 %1, 0
  br i1 %cmp, label %if.then, label %if.end

if.then:                                          ; preds = %entry
  store i1 false, ptr %retval, align 1
  br label %return

if.end:                                           ; preds = %entry
  store i64 0, ptr %i, align 8
  br label %for.cond

for.cond:                                         ; preds = %for.inc, %if.end
  %2 = load i64, ptr %i, align 8
  %3 = load i64, ptr %received_tags_length, align 8
  %cmp1 = icmp ult i64 %2, %3
  br i1 %cmp1, label %for.body, label %for.end

for.body:                                         ; preds = %for.cond
  %4 = load ptr, ptr %received_tags, align 8
  %5 = load i64, ptr %i, align 8
  %arrayidx = getelementptr inbounds i32, ptr %4, i64 %5
  %6 = load i32, ptr %arrayidx, align 4
  %cmp2 = icmp eq i32 %6, 1246057043
  br i1 %cmp2, label %if.then3, label %if.end4

if.then3:                                         ; preds = %for.body
  store i1 true, ptr %retval, align 1
  br label %return

if.end4:                                          ; preds = %for.body
  br label %for.inc

for.inc:                                          ; preds = %if.end4
  %7 = load i64, ptr %i, align 8
  %inc = add i64 %7, 1
  store i64 %inc, ptr %i, align 8
  br label %for.cond, !llvm.loop !5

for.end:                                          ; preds = %for.cond
  store i1 false, ptr %retval, align 1
  br label %return

return:                                           ; preds = %for.end, %if.then3, %if.then
  %8 = load i1, ptr %retval, align 1
  ret i1 %8
}