; Function Attrs: mustprogress uwtable
define dso_local noundef zeroext i1 @_ZN3net26QuicCryptoServerStreamBase31DoesPeerSupportStatelessRejectsERKNS_22CryptoHandshakeMessageE(ptr noundef nonnull align 8 dereferenceable(72) %message) local_unnamed_addr #0 align 2 {
entry:
  %received_tags = alloca ptr, align 8
  %received_tags_length = alloca i64, align 8
  %call = call noundef i32 @_ZNK3net22CryptoHandshakeMessage10GetTaglistEjPPKjPm(ptr noundef nonnull align 8 dereferenceable(72) %message, i32 noundef 1414549315, ptr noundef nonnull %received_tags, ptr noundef nonnull %received_tags_length)
  %cmp.not = icmp eq i32 %call, 0
  br i1 %cmp.not, label %for.cond.preheader, label %return

for.cond.preheader:                               ; preds = %entry
  %0 = load i64, ptr %received_tags_length, align 8
  %cmp13.not = icmp eq i64 %0, 0
  br i1 %cmp13.not, label %return, label %for.body.lr.ph

for.body.lr.ph:                                   ; preds = %for.cond.preheader
  %1 = load ptr, ptr %received_tags, align 8
  br label %for.body

for.body:                                         ; preds = %for.body, %for.body.lr.ph
  %i.04 = phi i64 [ 0, %for.body.lr.ph ], [ %inc, %for.body ]
  %arrayidx = getelementptr inbounds i32, ptr %1, i64 %i.04
  %2 = load i32, ptr %arrayidx, align 4
  %cmp2 = icmp eq i32 %2, 1246057043
  %inc = add nuw i64 %i.04, 1
  %exitcond.not = icmp eq i64 %inc, %0
  %or.cond = select i1 %cmp2, i1 true, i1 %exitcond.not
  br i1 %or.cond, label %return, label %for.body, !llvm.loop !5

return:                                           ; preds = %for.body, %for.cond.preheader, %entry
  %retval.0 = phi i1 [ false, %entry ], [ false, %for.cond.preheader ], [ %cmp2, %for.body ]
  ret i1 %retval.0
}